target datalayout = "e-m:e-p270:32:32-p271:32:32-p272:64:64-i64:64-i128:128-f80:128-n8:16:32:64-S128"
target triple = "x86_64-pc-linux-gnu"

@SDL_EventLoggingVerbosity = internal global i32 0, align 4

; Function Attrs: nounwind uwtable
define internal void @SDL_EventLoggingChanged(ptr noundef %0, ptr noundef %1, ptr noundef %2, ptr noundef %3) #0 {
  %5 = alloca ptr, align 8
  %6 = alloca ptr, align 8
  %7 = alloca ptr, align 8
  %8 = alloca ptr, align 8
  store ptr %0, ptr %5, align 8
  store ptr %1, ptr %6, align 8
  store ptr %2, ptr %7, align 8
  store ptr %3, ptr %8, align 8
  %9 = load ptr, ptr %8, align 8
  %10 = icmp ne ptr %9, null
  br i1 %10, label %11, label %33

11:                                               ; preds = %4
  %12 = load ptr, ptr %8, align 8
  %13 = load i8, ptr %12, align 1
  %14 = sext i8 %13 to i32
  %15 = icmp ne i32 %14, 0
  br i1 %15, label %16, label %33

16:                                               ; preds = %11
  %17 = load ptr, ptr %8, align 8
  %18 = call i32 @SDL_atoi_REAL(ptr noundef %17)
  %19 = icmp slt i32 %18, 0
  br i1 %19, label %20, label %21

20:                                               ; preds = %16
  br label %31

21:                                               ; preds = %16
  %22 = load ptr, ptr %8, align 8
  %23 = call i32 @SDL_atoi_REAL(ptr noundef %22)
  %24 = icmp sgt i32 %23, 3
  br i1 %24, label %25, label %26

25:                                               ; preds = %21
  br label %29

26:                                               ; preds = %21
  %27 = load ptr, ptr %8, align 8
  %28 = call i32 @SDL_atoi_REAL(ptr noundef %27)
  br label %29

29:                                               ; preds = %26, %25
  %30 = phi i32 [ 3, %25 ], [ %28, %26 ]
  br label %31

31:                                               ; preds = %29, %20
  %32 = phi i32 [ 0, %20 ], [ %30, %29 ]
  br label %34

33:                                               ; preds = %11, %4
  br label %34

34:                                               ; preds = %33, %31
  %35 = phi i32 [ %32, %31 ], [ 0, %33 ]
  store i32 %35, ptr @SDL_EventLoggingVerbosity, align 4
  ret void
}