; Function Attrs: nounwind uwtable
define internal void @SDL_EventLoggingChanged(ptr readnone captures(none) %0, ptr readnone captures(none) %1, ptr readnone captures(none) %2, ptr noundef %3) #0 {
  %.not = icmp eq ptr %3, null
  br i1 %.not, label %15, label %5

5:                                                ; preds = %4
  %6 = load i8, ptr %3, align 1
  %.not5 = icmp eq i8 %6, 0
  br i1 %.not5, label %15, label %7

7:                                                ; preds = %5
  %8 = tail call i32 @SDL_atoi_REAL(ptr noundef nonnull %3) #8
  %9 = icmp slt i32 %8, 0
  br i1 %9, label %15, label %10

10:                                               ; preds = %7
  %11 = tail call i32 @SDL_atoi_REAL(ptr noundef nonnull %3) #8
  %12 = icmp sgt i32 %11, 3
  br i1 %12, label %15, label %13

13:                                               ; preds = %10
  %14 = tail call i32 @SDL_atoi_REAL(ptr noundef nonnull %3) #8
  br label %15

15:                                               ; preds = %4, %5, %7, %10, %13
  %16 = phi i32 [ 0, %7 ], [ %14, %13 ], [ 3, %10 ], [ 0, %5 ], [ 0, %4 ]
  store i32 %16, ptr @SDL_EventLoggingVerbosity, align 4
  ret void
}